target datalayout = "e-m:e-p270:32:32-p271:32:32-p272:64:64-i64:64-i128:128-f80:128-n8:16:32:64-S128"
target triple = "x86_64-pc-linux-gnu"

%"class.std::__1::ios_base" = type { ptr, i32, i64, i64, i32, i32, ptr, ptr, ptr, ptr, i64, i64, ptr, i64, i64, ptr, i64, i64 }

; Function Attrs: mustprogress uwtable
define dso_local void @_ZNSt3__18ios_base34__set_failbit_and_consider_rethrowEv(ptr noundef nonnull align 8 dereferenceable(136) %0) #1 align 2 {
  %2 = alloca ptr, align 8
  store ptr %0, ptr %2, align 8, !tbaa !27
  %3 = load ptr, ptr %2, align 8
  %4 = getelementptr inbounds nuw %"class.std::__1::ios_base", ptr %3, i32 0, i32 4
  %5 = load i32, ptr %4, align 8, !tbaa !52
  %6 = or i32 %5, 4
  store i32 %6, ptr %4, align 8, !tbaa !52
  %7 = getelementptr inbounds nuw %"class.std::__1::ios_base", ptr %3, i32 0, i32 5
  %8 = load i32, ptr %7, align 4, !tbaa !62
  %9 = and i32 %8, 4
  %10 = icmp ne i32 %9, 0
  br i1 %10, label %11, label %12

11:                                               ; preds = %1
  call void @__cxa_rethrow() #21
  unreachable

12:                                               ; preds = %1
  ret void
}